target datalayout = "e-m:e-p270:32:32-p271:32:32-p272:64:64-i64:64-i128:128-f80:128-n8:16:32:64-S128"
target triple = "x86_64-pc-linux-gnu"

@proto_tpncp = internal global i32 0, align 4
@tpncp_handle = internal global ptr null, align 8
@tpncp_tcp_handle = internal global ptr null, align 8
@global_tpncp_load_db = internal global i8 0, align 1
@proto_register_tpncp.ett = internal global [2 x ptr] [ptr @ett_tpncp, ptr @ett_tpncp_body], align 16
@.str.8 = private unnamed_addr constant [54 x i8] c"AudioCodes TPNCP (TrunkPack Network Control Protocol)\00", align 1
@.str.9 = private unnamed_addr constant [6 x i8] c"TPNCP\00", align 1
@.str.10 = private unnamed_addr constant [6 x i8] c"tpncp\00", align 1
@.str.11 = private unnamed_addr constant [10 x i8] c"tpncp.tcp\00", align 1
@.str.12 = private unnamed_addr constant [8 x i8] c"load_db\00", align 1
@.str.13 = private unnamed_addr constant [65 x i8] c"Whether to load DB or not; if DB not loaded dissector is passive\00", align 1
@.str.14 = private unnamed_addr constant [141 x i8] c"Whether to load the Database or not; not loading the DB disables the protocol; Wireshark has to be restarted for the setting to take effect.\00", align 1

; Function Attrs: null_pointer_is_valid sspstrong uwtable
define hidden void @proto_register_tpncp() #0 {
  %1 = alloca ptr, align 8
  %2 = alloca ptr, align 8
  call void @llvm.lifetime.start.p0(i64 8, ptr %1) #14
  call void @llvm.lifetime.start.p0(i64 8, ptr %2) #14
  %3 = call i32 @proto_register_protocol(ptr noundef @.str.8, ptr noundef @.str.9, ptr noundef @.str.10)
  store i32 %3, ptr @proto_tpncp, align 4
  %4 = load i32, ptr @proto_tpncp, align 4
  %5 = call ptr @register_dissector(ptr noundef @.str.10, ptr noundef @dissect_tpncp, i32 noundef %4)
  store ptr %5, ptr @tpncp_handle, align 8
  %6 = load i32, ptr @proto_tpncp, align 4
  %7 = call ptr @register_dissector(ptr noundef @.str.11, ptr noundef @dissect_tpncp_tcp, i32 noundef %6)
  store ptr %7, ptr @tpncp_tcp_handle, align 8
  %8 = load i32, ptr @proto_tpncp, align 4
  %9 = call ptr @prefs_register_protocol(i32 noundef %8, ptr noundef @proto_reg_handoff_tpncp)
  store ptr %9, ptr %1, align 8
  call void @proto_register_subtree_array(ptr noundef @proto_register_tpncp.ett, i32 noundef 2)
  %10 = load i32, ptr @proto_tpncp, align 4
  %11 = call ptr @expert_register_protocol(i32 noundef %10)
  store ptr %11, ptr %2, align 8
  %12 = load ptr, ptr %2, align 8
  call void @expert_register_field_array(ptr noundef %12, ptr noundef @proto_register_tpncp.ei, i32 noundef 1)
  %13 = load ptr, ptr %1, align 8
  call void @prefs_register_bool_preference(ptr noundef %13, ptr noundef @.str.12, ptr noundef @.str.13, ptr noundef @.str.14, ptr noundef @global_tpncp_load_db)
  call void @llvm.lifetime.end.p0(i64 8, ptr %2) #14
  call void @llvm.lifetime.end.p0(i64 8, ptr %1) #14
  ret void
}