; Function Attrs: null_pointer_is_valid sspstrong uwtable
define hidden void @proto_register_tpncp() local_unnamed_addr #0 {
  %1 = tail call i32 @proto_register_protocol(ptr noundef nonnull @.str.8, ptr noundef nonnull @.str.9, ptr noundef nonnull @.str.10)
  store i32 %1, ptr @proto_tpncp, align 4
  %2 = tail call ptr @register_dissector(ptr noundef nonnull @.str.10, ptr noundef nonnull @dissect_tpncp, i32 noundef %1)
  store ptr %2, ptr @tpncp_handle, align 8
  %3 = load i32, ptr @proto_tpncp, align 4
  %4 = tail call ptr @register_dissector(ptr noundef nonnull @.str.11, ptr noundef nonnull @dissect_tpncp_tcp, i32 noundef %3)
  store ptr %4, ptr @tpncp_tcp_handle, align 8
  %5 = load i32, ptr @proto_tpncp, align 4
  %6 = tail call ptr @prefs_register_protocol(i32 noundef %5, ptr noundef nonnull @proto_reg_handoff_tpncp)
  tail call void @proto_register_subtree_array(ptr noundef nonnull @proto_register_tpncp.ett, i32 noundef 2)
  %7 = load i32, ptr @proto_tpncp, align 4
  %8 = tail call ptr @expert_register_protocol(i32 noundef %7)
  tail call void @expert_register_field_array(ptr noundef %8, ptr noundef nonnull @proto_register_tpncp.ei, i32 noundef 1)
  tail call void @prefs_register_bool_preference(ptr noundef %6, ptr noundef nonnull @.str.12, ptr noundef nonnull @.str.13, ptr noundef nonnull @.str.14, ptr noundef nonnull @global_tpncp_load_db)
  ret void
}